Certificate:
    Data:
        Version: 3 (0x2)
        Serial Number: 1 (0x1)
        Signature Algorithm: sha256WithRSAEncryption
        Issuer: C=US, ST=Washington, L=Seattle, O=DellEMC, CN=DellEMC SE Lab/emailAddress=craig.j.smith@dell.com
        Validity
            Not Before: Jan  8 21:22:44 2018 GMT
            Not After : Jan  6 21:22:44 2028 GMT
        Subject: C=US, ST=Washington, O=DellEMC, CN=se.lab.emc.com
        Subject Public Key Info:
            Public Key Algorithm: rsaEncryption
            RSA Public Key: (4096 bit)
                Modulus (4096 bit):
                    00:e4:ac:0d:66:87:93:93:76:b5:aa:b2:4a:25:49:
                    9a:89:b4:92:9d:fd:7d:b3:92:08:52:3f:f2:0e:08:
                    f7:59:c1:77:d6:f0:8a:91:67:cd:b4:35:0d:08:e8:
                    66:b1:40:aa:12:be:55:27:28:b7:bd:ce:22:c3:1e:
                    4d:e1:76:bd:5c:09:82:72:6c:76:31:ec:02:a6:61:
                    af:ff:7d:b9:37:06:fa:f2:f8:b0:23:3e:4d:1d:b5:
                    a1:07:b6:0b:65:21:15:03:0d:e4:6d:37:d2:d1:18:
                    8c:b2:17:15:ea:29:b6:02:47:e8:43:26:ab:d5:1b:
                    75:b2:33:c4:5b:9f:9e:8e:55:0e:06:63:83:91:59:
                    e7:86:33:c6:09:87:b8:6b:9c:3e:46:2d:76:6a:2a:
                    b9:19:61:fe:34:fa:61:4c:6a:6a:f3:9e:73:60:ec:
                    bb:d4:07:aa:47:09:94:8c:f7:48:b6:e4:e6:95:92:
                    cf:77:67:a6:e4:e1:b1:37:4a:7f:eb:40:63:fb:dc:
                    d1:90:84:d6:54:de:74:ca:5e:26:a9:ff:3f:10:3f:
                    8a:1b:fa:dc:98:8d:77:ca:ab:cd:6c:98:2d:e4:fe:
                    b0:7c:c2:65:2a:b1:c4:fe:a4:de:4c:cb:4d:74:94:
                    3c:73:d0:6e:22:c2:ac:d7:50:47:e5:bf:af:39:6e:
                    d5:72:8d:9d:3f:89:8a:bf:e2:3f:49:1b:94:46:e7:
                    2e:82:11:7a:0e:eb:8f:2e:5e:39:9c:bf:05:9f:67:
                    cd:4d:c4:18:ee:b7:d3:13:f4:f2:b6:66:ec:e5:45:
                    cf:e6:dc:cb:08:22:f0:51:58:18:ce:b6:df:38:84:
                    f4:c8:a8:ab:4c:90:ef:0e:78:4d:4d:0b:ee:b0:ae:
                    f7:5b:de:69:a5:62:d1:04:87:16:78:52:f2:8f:ef:
                    8a:69:6c:0e:58:24:c8:15:75:43:57:fd:53:4f:9e:
                    cb:7b:b1:31:b4:4f:ff:07:87:13:6e:a8:41:45:b7:
                    78:6d:44:d0:28:3b:32:6d:7e:8c:d7:96:f1:b3:92:
                    2a:d8:e7:3c:c7:16:c4:f1:4b:e6:ef:0f:c4:53:c9:
                    44:3d:6a:65:69:20:44:61:17:0c:3d:ad:e8:ff:d8:
                    b1:a0:ae:85:a0:cb:9a:d7:1b:23:86:a0:b8:9d:87:
                    31:38:7d:70:2b:36:96:86:4f:45:f8:fe:c4:4d:36:
                    13:e7:71:23:a9:a8:9d:91:c4:bc:fc:4c:4a:5a:30:
                    7a:bf:10:8d:d0:73:0b:f1:78:cf:b2:1e:d8:30:06:
                    87:84:10:25:4a:5f:bd:2d:9d:72:07:01:c4:0e:21:
                    f2:f3:c5:4c:7c:8e:64:12:b8:fb:ae:ba:cc:a1:1e:
                    d0:eb:09
                Exponent: 65537 (0x10001)
        X509v3 extensions:
            X509v3 Basic Constraints: 
                CA:FALSE
            X509v3 Subject Alternative Name: 
                DNS:*.se.lab.emc.com, DNS:se.lab.emc.com, DNS:*.paclabs.se.lab.emc.com, DNS:paclabs.se.lab.emc.com, DNS:*.norcal.se.lab.emc.com, DNS:norcal.se.lab.emc.com, DNS:*.pcf.paclabs.se.lab.emc.com, DNS:*.apps.paclabs.se.lab.emc.com, DNS:*.bellevuelab.isus.emc.com, DNS:pcf.paclabs.se.lab.emc.com, DNS:apps.paclabs.se.lab.emc.com, DNS:*.login.pcf.paclabs.se.lab.emc.com, DNS:*.uaa.pcf.paclabs.se.lab.emc.com
            X509v3 Subject Key Identifier: 
                D8:36:56:19:B3:2F:0C:B8:30:F8:A2:A2:5E:76:42:93:22:BC:96:8E
    Signature Algorithm: sha256WithRSAEncryption
        51:26:0b:ac:72:f2:5d:17:97:22:05:05:b9:73:2b:30:8c:f5:
        11:93:6e:de:12:a0:91:60:0b:3c:a0:fb:19:1c:32:00:a5:64:
        48:ac:fb:03:02:bb:54:c1:43:43:ec:00:1c:18:b2:94:b9:f4:
        42:6b:8f:af:28:35:9f:51:94:fd:4f:04:de:a9:e3:9f:9d:82:
        c3:73:1b:81:8c:2d:86:bf:45:31:ae:75:9e:d7:ac:e3:11:c3:
        cb:ab:2e:36:cb:bf:95:ec:7f:78:47:61:bc:5e:71:3e:05:0a:
        72:2b:d9:7e:5b:02:9e:a8:bf:e0:8d:13:a3:b1:be:9f:e7:6d:
        95:c7:33:42:57:2e:ba:1e:fc:1e:59:3a:7b:d2:85:8e:ce:63:
        25:36:47:e8:d7:9d:71:23:1b:f3:87:19:d0:a4:40:da:05:ec:
        de:25:75:8f:21:d2:12:99:eb:77:89:e9:7f:5e:0a:ed:20:f2:
        f1:bc:76:d5:22:fa:f2:46:85:6e:ff:f9:da:07:ae:36:9a:8d:
        20:fb:54:87:e4:f5:0f:68:ed:cf:43:e0:9e:f7:1f:52:19:e9:
        d7:4c:e7:6e:20:a2:04:ce:52:c0:07:ac:ef:29:29:73:7a:8f:
        6f:c6:8c:ae:a1:a0:b0:59:15:68:c2:7d:07:a8:a0:6b:f5:eb:
        63:39:96:9b:0b:52:7d:84:39:6e:3a:5f:7b:2d:f3:b7:ba:f7:
        67:f1:c8:a5:f4:b2:8b:dc:db:49:cd:16:60:a1:d9:65:72:5d:
        bf:1a:d3:9c:6e:f1:b8:8a:97:07:2d:bb:0a:ac:13:f8:1b:2a:
        29:c7:44:02:4c:2a:6b:1c:2a:03:2a:93:04:6c:92:4f:e0:43:
        70:24:35:22:3d:f9:18:df:3c:28:00:f3:9b:1d:b4:57:ab:1f:
        47:65:e9:0f:6e:69:41:e2:73:15:4e:f4:9a:af:f5:aa:16:47:
        41:0c:6c:2c:ea:71:04:dc:fb:8b:8c:8d:ac:a2:c8:4a:3f:e3:
        46:b1:56:9d:1c:e1:bf:fb:1b:fc:44:9e:2f:fe:1c:f5:ff:a6:
        e8:2e:89:db:b6:fe:31:c7:86:08:87:bb:c1:21:47:2c:94:03:
        ce:db:5d:b8:7c:b6:7d:91:53:f3:7d:7b:57:a5:94:88:8a:e5:
        c4:f6:dc:b4:14:c2:05:32:c1:69:95:59:e0:0d:ea:02:f1:6a:
        ad:8f:d8:06:1a:40:7d:26:18:e8:34:02:27:51:b2:c1:f1:20:
        17:ab:c9:a8:d7:bb:6c:63:4b:2f:89:fb:89:9e:f9:19:67:c0:
        bc:59:3c:cb:8d:95:87:ac:4c:a0:0b:de:e3:b6:0e:2e:cc:97:
        46:7e:71:5f:d9:f3:30:1e
-----BEGIN CERTIFICATE-----
MIIG7DCCBNSgAwIBAgIBATANBgkqhkiG9w0BAQsFADCBhjELMAkGA1UEBhMCVVMx
EzARBgNVBAgTCldhc2hpbmd0b24xEDAOBgNVBAcTB1NlYXR0bGUxEDAOBgNVBAoT
B0RlbGxFTUMxFzAVBgNVBAMTDkRlbGxFTUMgU0UgTGFiMSUwIwYJKoZIhvcNAQkB
FhZjcmFpZy5qLnNtaXRoQGRlbGwuY29tMB4XDTE4MDEwODIxMjI0NFoXDTI4MDEw
NjIxMjI0NFowTTELMAkGA1UEBhMCVVMxEzARBgNVBAgMCldhc2hpbmd0b24xEDAO
BgNVBAoMB0RlbGxFTUMxFzAVBgNVBAMMDnNlLmxhYi5lbWMuY29tMIICIjANBgkq
hkiG9w0BAQEFAAOCAg8AMIICCgKCAgEA5KwNZoeTk3a1qrJKJUmaibSSnf19s5II
Uj/yDgj3WcF31vCKkWfNtDUNCOhmsUCqEr5VJyi3vc4iwx5N4Xa9XAmCcmx2MewC
pmGv/325Nwb68viwIz5NHbWhB7YLZSEVAw3kbTfS0RiMshcV6im2AkfoQyar1Rt1
sjPEW5+ejlUOBmODkVnnhjPGCYe4a5w+Ri12aiq5GWH+NPphTGpq855zYOy71Aeq
RwmUjPdItuTmlZLPd2em5OGxN0p/60Bj+9zRkITWVN50yl4mqf8/ED+KG/rcmI13
yqvNbJgt5P6wfMJlKrHE/qTeTMtNdJQ8c9BuIsKs11BH5b+vOW7Vco2dP4mKv+I/
SRuURucughF6DuuPLl45nL8Fn2fNTcQY7rfTE/Tytmbs5UXP5tzLCCLwUVgYzrbf
OIT0yKirTJDvDnhNTQvusK73W95ppWLRBIcWeFLyj++KaWwOWCTIFXVDV/1TT57L
e7ExtE//B4cTbqhBRbd4bUTQKDsybX6M15bxs5Iq2Oc8xxbE8Uvm7w/EU8lEPWpl
aSBEYRcMPa3o/9ixoK6FoMua1xsjhqC4nYcxOH1wKzaWhk9F+P7ETTYT53Ejqaid
kcS8/ExKWjB6vxCN0HML8XjPsh7YMAaHhBAlSl+9LZ1yBwHEDiHy88VMfI5kErj7
rrrMoR7Q6wkCAwEAAaOCAZswggGXMAkGA1UdEwQCMAAwggFpBgNVHREEggFgMIIB
XIIQKi5zZS5sYWIuZW1jLmNvbYIOc2UubGFiLmVtYy5jb22CGCoucGFjbGFicy5z
ZS5sYWIuZW1jLmNvbYIWcGFjbGFicy5zZS5sYWIuZW1jLmNvbYIXKi5ub3JjYWwu
c2UubGFiLmVtYy5jb22CFW5vcmNhbC5zZS5sYWIuZW1jLmNvbYIcKi5wY2YucGFj
bGFicy5zZS5sYWIuZW1jLmNvbYIdKi5hcHBzLnBhY2xhYnMuc2UubGFiLmVtYy5j
b22CGiouYmVsbGV2dWVsYWIuaXN1cy5lbWMuY29tghpwY2YucGFjbGFicy5zZS5s
YWIuZW1jLmNvbYIbYXBwcy5wYWNsYWJzLnNlLmxhYi5lbWMuY29tgiIqLmxvZ2lu
LnBjZi5wYWNsYWJzLnNlLmxhYi5lbWMuY29tgiAqLnVhYS5wY2YucGFjbGFicy5z
ZS5sYWIuZW1jLmNvbTAdBgNVHQ4EFgQU2DZWGbMvDLgw+KKiXnZCkyK8lo4wDQYJ
KoZIhvcNAQELBQADggIBAFEmC6xy8l0XlyIFBblzKzCM9RGTbt4SoJFgCzyg+xkc
MgClZEis+wMCu1TBQ0PsABwYspS59EJrj68oNZ9RlP1PBN6p45+dgsNzG4GMLYa/
RTGudZ7XrOMRw8urLjbLv5Xsf3hHYbxecT4FCnIr2X5bAp6ov+CNE6Oxvp/nbZXH
M0JXLroe/B5ZOnvShY7OYyU2R+jXnXEjG/OHGdCkQNoF7N4ldY8h0hKZ63eJ6X9e
Cu0g8vG8dtUi+vJGhW7/+doHrjaajSD7VIfk9Q9o7c9D4J73H1IZ6ddM524gogTO
UsAHrO8pKXN6j2/GjK6hoLBZFWjCfQeooGv162M5lpsLUn2EOW46X3st87e692fx
yKX0sovc20nNFmCh2WVyXb8a05xu8biKlwctuwqsE/gbKinHRAJMKmscKgMqkwRs
kk/gQ3AkNSI9+RjfPCgA85sdtFerH0dl6Q9uaUHicxVO9Jqv9aoWR0EMbCzqcQTc
+4uMjayiyEo/40axVp0c4b/7G/xEni/+HPX/puguidu2/jHHhgiHu8EhRyyUA87b
Xbh8tn2RU/N9e1ellIiK5cT23LQUwgUywWmVWeAN6gLxaq2P2AYaQH0mGOg0AidR
ssHxIBeryajXu2xjSy+J+4me+RlnwLxZPMuNlYesTKAL3uO2Di7Ml0Z+cV/Z8zAe
-----END CERTIFICATE-----
