Certificate:
    Data:
        Version: 3 (0x2)
        Serial Number: 1 (0x1)
        Signature Algorithm: sha256WithRSAEncryption
        Issuer: C=US, ST=Washington, L=Seattle, O=DellEMC, OU=SE_LAB, CN=se.lab.emc.com/emailAddress=craig.j.smith@dell.com
        Validity
            Not Before: Dec 22 21:58:02 2017 GMT
            Not After : Dec 20 21:58:02 2027 GMT
        Subject: C=US, ST=Washington, O=DellEMC, CN=se.lab.emc.com
        Subject Public Key Info:
            Public Key Algorithm: rsaEncryption
            RSA Public Key: (4096 bit)
                Modulus (4096 bit):
                    00:eb:34:ac:cc:da:22:c0:64:ce:24:cd:60:86:2e:
                    de:ba:8d:15:9e:c1:47:90:f7:cf:b9:ed:37:e9:b1:
                    e3:72:94:39:82:ee:74:7d:21:38:5a:31:26:47:5b:
                    ed:9f:3a:d2:11:f2:ce:30:0c:3f:bb:6a:a1:24:ad:
                    ee:48:ce:d7:02:75:e4:5b:98:b9:d7:92:d3:c1:cd:
                    af:31:75:19:ce:49:fd:ce:8b:e8:39:9d:3d:5f:7e:
                    9b:b7:11:4b:a2:ff:7a:83:40:07:30:6a:c1:9b:14:
                    91:d5:6c:b5:0d:60:a7:6b:d2:e3:83:c8:6c:c7:8d:
                    9d:d6:81:30:08:0e:99:dd:ec:a8:4e:6a:fb:99:b4:
                    c5:3b:77:13:cb:cd:5c:84:b4:62:3e:2f:d9:a8:fb:
                    00:e7:a9:7d:04:ee:bf:f0:0c:84:db:c5:bd:c0:5c:
                    ec:91:cc:eb:e4:b8:46:d0:a4:dc:ef:dc:0d:f4:d9:
                    ba:e2:fb:6d:38:1a:47:cd:0d:7f:e5:15:ea:40:ba:
                    8a:2d:eb:40:3a:26:4c:41:2d:98:c8:c4:80:7b:e2:
                    7f:f8:77:04:31:9d:d4:7b:22:65:24:eb:04:fc:5c:
                    a9:93:25:24:90:84:e3:d9:1e:29:a3:e8:1e:49:c8:
                    bc:dc:20:a9:8b:eb:2c:2c:54:19:a2:ea:69:36:52:
                    fe:df:51:26:2f:f6:c9:bc:82:d7:e7:3c:cb:05:59:
                    2e:87:6e:e4:f3:8f:12:b7:48:81:dc:8f:dc:76:cf:
                    37:ab:d1:dc:f0:81:3a:8d:47:41:1c:98:39:4c:c9:
                    b1:ff:9d:45:5a:e3:45:46:86:e8:a3:7a:df:2d:4d:
                    91:5d:de:40:0d:dc:21:45:e8:e8:dc:07:66:f1:ee:
                    63:09:ac:aa:eb:97:22:f6:23:d3:35:0c:6d:82:69:
                    0a:7b:a1:2e:3c:26:03:47:06:8c:6f:bf:c7:7a:61:
                    3e:73:e1:cc:7a:7f:23:8f:82:54:dc:ae:ae:56:1c:
                    0d:b0:6e:e0:4d:ba:d6:a5:12:56:76:68:af:06:80:
                    61:9c:8b:b4:f4:77:00:05:48:ab:e3:51:dd:f3:4e:
                    93:db:98:95:1a:01:52:d6:97:3d:f7:6b:06:05:33:
                    49:ad:2f:4e:6e:ad:be:1e:1d:bc:23:e7:0d:22:f9:
                    1f:33:bc:f8:4f:ee:34:dd:ac:dd:87:a9:6b:1d:f2:
                    62:9f:7b:69:c0:dd:0d:40:45:1a:31:a5:8c:d4:f7:
                    6f:ac:c8:38:34:84:4e:e4:d5:0a:c0:43:5d:bf:39:
                    62:8c:d0:66:78:17:40:e2:b6:48:80:d5:02:7c:c5:
                    c8:1c:f5:5e:f3:e8:6b:72:fc:7a:eb:00:3b:f3:cb:
                    10:87:d7
                Exponent: 65537 (0x10001)
        X509v3 extensions:
            X509v3 Basic Constraints: 
                CA:FALSE
            X509v3 Subject Alternative Name: 
                DNS:*.se.lab.emc.com, DNS:se.lab.emc.com, DNS:*.paclabs.se.lab.emc.com, DNS:paclabs.se.lab.emc.com, DNS:*.norcal.se.lab.emc.com, DNS:norcal.se.lab.emc.com, DNS:*.pcf.paclabs.se.lab.emc.com, DNS:*.apps.paclabs.se.lab.emc.com, DNS:*.bellevuelab.isus.emc.com, DNS:pcf.paclabs.se.lab.emc.com, DNS:apps.paclabs.se.lab.emc.com, DNS:*.login.pcf.paclabs.se.lab.emc.com, DNS:*.uaa.pcf.paclabs.se.lab.emc.com
            X509v3 Subject Key Identifier: 
                B4:C9:D9:88:70:9D:4E:FB:2E:C5:F9:64:F3:5D:E4:FC:1D:DC:4F:C3
    Signature Algorithm: sha256WithRSAEncryption
        3d:e3:b6:d5:9d:1d:56:93:81:01:f2:fb:37:02:00:37:c5:b1:
        2a:3d:49:63:81:3e:db:f5:ac:43:c9:4f:ec:c5:f0:4e:ca:e9:
        fc:60:7e:d3:fc:c7:fd:1b:67:11:69:18:a4:f3:49:66:69:71:
        ea:2e:59:5a:2b:af:7e:5b:10:e7:6a:3e:66:bf:c5:3f:dd:94:
        6a:77:9b:3b:65:68:7d:dc:2b:6c:8a:14:7b:06:e9:22:32:52:
        e2:01:da:10:73:2b:fd:0d:f1:17:a5:5b:74:41:aa:5c:d6:be:
        da:ed:68:b5:11:38:2d:6c:49:36:e2:61:67:53:2c:2a:5e:5c:
        85:5e:46:98:8d:6a:eb:6d:57:0b:6b:ad:d3:18:39:c9:97:e3:
        a6:71:96:9d:fc:d8:66:6c:93:1b:ae:52:f6:51:7b:61:f1:41:
        72:c7:21:85:c7:72:ab:6b:89:58:2b:ab:9b:3b:68:8d:82:c6:
        c7:60:83:5c:b3:4d:ef:c5:d3:24:ff:be:bf:4a:f6:8d:3c:b5:
        08:60:52:89:7f:75:37:74:48:3e:e7:be:02:e4:be:e6:83:56:
        65:d0:10:05:4c:9b:fb:a1:b0:3c:07:b0:b9:bd:9c:76:5c:a3:
        ca:5e:fa:40:63:87:56:8b:22:92:33:a4:d2:94:b1:f1:91:74:
        cc:ac:b0:c8:b8:76:94:d5:3d:36:a7:31:0d:c1:76:f8:8e:10:
        a4:3b:a0:c4:75:f7:29:fb:f2:cb:26:df:c3:0f:98:f8:e4:6c:
        22:74:a8:41:fb:c3:36:d9:14:8f:b5:7a:8b:11:98:2b:56:e1:
        fc:77:82:18:cd:5e:c6:5b:68:80:51:8d:f0:fd:d2:7a:81:fd:
        75:16:af:5d:d4:42:ab:ad:13:ba:f6:de:17:df:90:0d:57:84:
        13:a3:00:29:d4:45:db:c7:26:23:b0:c7:d1:6f:7e:ca:33:4a:
        2a:7c:95:44:73:cf:85:30:6a:c6:6d:71:b3:27:d8:31:85:01:
        f0:68:f2:e5:40:39:e6:bf:a6:23:1b:81:88:b7:38:ff:02:20:
        34:48:ba:bc:b3:3f:0c:d1:5c:ec:8c:a4:9d:59:51:ff:7a:ef:
        1b:d6:5d:9e:66:bb:75:40:ba:ab:f5:e2:12:51:3c:07:41:6d:
        10:61:cc:99:b1:ad:a9:39:59:3e:17:31:81:f9:68:35:88:75:
        3f:a0:e9:5d:c4:3f:bf:9e:4d:0a:d2:55:7f:9e:4c:5f:1a:fb:
        c0:cd:f0:05:04:0a:88:79:95:95:67:a7:82:a8:f4:d9:33:80:
        4d:98:71:6d:1f:e0:4e:fb:d5:cf:65:1a:d2:55:44:b1:77:57:
        af:81:a0:ac:ef:23:2d:d7
-----BEGIN CERTIFICATE-----
MIIG/TCCBOWgAwIBAgIBATANBgkqhkiG9w0BAQsFADCBlzELMAkGA1UEBhMCVVMx
EzARBgNVBAgTCldhc2hpbmd0b24xEDAOBgNVBAcTB1NlYXR0bGUxEDAOBgNVBAoT
B0RlbGxFTUMxDzANBgNVBAsUBlNFX0xBQjEXMBUGA1UEAxMOc2UubGFiLmVtYy5j
b20xJTAjBgkqhkiG9w0BCQEWFmNyYWlnLmouc21pdGhAZGVsbC5jb20wHhcNMTcx
MjIyMjE1ODAyWhcNMjcxMjIwMjE1ODAyWjBNMQswCQYDVQQGEwJVUzETMBEGA1UE
CAwKV2FzaGluZ3RvbjEQMA4GA1UECgwHRGVsbEVNQzEXMBUGA1UEAwwOc2UubGFi
LmVtYy5jb20wggIiMA0GCSqGSIb3DQEBAQUAA4ICDwAwggIKAoICAQDrNKzM2iLA
ZM4kzWCGLt66jRWewUeQ98+57TfpseNylDmC7nR9IThaMSZHW+2fOtIR8s4wDD+7
aqEkre5IztcCdeRbmLnXktPBza8xdRnOSf3Oi+g5nT1ffpu3EUui/3qDQAcwasGb
FJHVbLUNYKdr0uODyGzHjZ3WgTAIDpnd7KhOavuZtMU7dxPLzVyEtGI+L9mo+wDn
qX0E7r/wDITbxb3AXOyRzOvkuEbQpNzv3A302bri+204GkfNDX/lFepAuoot60A6
JkxBLZjIxIB74n/4dwQxndR7ImUk6wT8XKmTJSSQhOPZHimj6B5JyLzcIKmL6yws
VBmi6mk2Uv7fUSYv9sm8gtfnPMsFWS6HbuTzjxK3SIHcj9x2zzer0dzwgTqNR0Ec
mDlMybH/nUVa40VGhuijet8tTZFd3kAN3CFF6OjcB2bx7mMJrKrrlyL2I9M1DG2C
aQp7oS48JgNHBoxvv8d6YT5z4cx6fyOPglTcrq5WHA2wbuBNutalElZ2aK8GgGGc
i7T0dwAFSKvjUd3zTpPbmJUaAVLWlz33awYFM0mtL05urb4eHbwj5w0i+R8zvPhP
7jTdrN2HqWsd8mKfe2nA3Q1ARRoxpYzU92+syDg0hE7k1QrAQ12/OWKM0GZ4F0Di
tkiA1QJ8xcgc9V7z6Gty/HrrADvzyxCH1wIDAQABo4IBmzCCAZcwCQYDVR0TBAIw
ADCCAWkGA1UdEQSCAWAwggFcghAqLnNlLmxhYi5lbWMuY29tgg5zZS5sYWIuZW1j
LmNvbYIYKi5wYWNsYWJzLnNlLmxhYi5lbWMuY29tghZwYWNsYWJzLnNlLmxhYi5l
bWMuY29tghcqLm5vcmNhbC5zZS5sYWIuZW1jLmNvbYIVbm9yY2FsLnNlLmxhYi5l
bWMuY29tghwqLnBjZi5wYWNsYWJzLnNlLmxhYi5lbWMuY29tgh0qLmFwcHMucGFj
bGFicy5zZS5sYWIuZW1jLmNvbYIaKi5iZWxsZXZ1ZWxhYi5pc3VzLmVtYy5jb22C
GnBjZi5wYWNsYWJzLnNlLmxhYi5lbWMuY29tghthcHBzLnBhY2xhYnMuc2UubGFi
LmVtYy5jb22CIioubG9naW4ucGNmLnBhY2xhYnMuc2UubGFiLmVtYy5jb22CICou
dWFhLnBjZi5wYWNsYWJzLnNlLmxhYi5lbWMuY29tMB0GA1UdDgQWBBS0ydmIcJ1O
+y7F+WTzXeT8HdxPwzANBgkqhkiG9w0BAQsFAAOCAgEAPeO21Z0dVpOBAfL7NwIA
N8WxKj1JY4E+2/WsQ8lP7MXwTsrp/GB+0/zH/RtnEWkYpPNJZmlx6i5ZWiuvflsQ
52o+Zr/FP92UanebO2VofdwrbIoUewbpIjJS4gHaEHMr/Q3xF6VbdEGqXNa+2u1o
tRE4LWxJNuJhZ1MsKl5chV5GmI1q621XC2ut0xg5yZfjpnGWnfzYZmyTG65S9lF7
YfFBcschhcdyq2uJWCurmztojYLGx2CDXLNN78XTJP++v0r2jTy1CGBSiX91N3RI
Pue+AuS+5oNWZdAQBUyb+6GwPAewub2cdlyjyl76QGOHVosikjOk0pSx8ZF0zKyw
yLh2lNU9NqcxDcF2+I4QpDugxHX3Kfvyyybfww+Y+ORsInSoQfvDNtkUj7V6ixGY
K1bh/HeCGM1exltogFGN8P3SeoH9dRavXdRCq60TuvbeF9+QDVeEE6MAKdRF28cm
I7DH0W9+yjNKKnyVRHPPhTBqxm1xsyfYMYUB8Gjy5UA55r+mIxuBiLc4/wIgNEi6
vLM/DNFc7IyknVlR/3rvG9Zdnma7dUC6q/XiElE8B0FtEGHMmbGtqTlZPhcxgflo
NYh1P6DpXcQ/v55NCtJVf55MXxr7wM3wBQQKiHmVlWengqj02TOATZhxbR/gTvvV
z2Ua0lVEsXdXr4GgrO8jLdc=
-----END CERTIFICATE-----
